; Function Attrs: mustprogress nofree norecurse nosync nounwind willreturn memory(argmem: write) uwtable
define dso_local void @_ZN4llvm17ModuleSlotTrackerC2ERNS_11SlotTrackerEPKNS_6ModuleEPKNS_8FunctionE(ptr nocapture noundef nonnull writeonly align 8 dereferenceable(112) %0, ptr noundef nonnull align 8 dereferenceable(356) %1, ptr noundef %2, ptr noundef %3) unnamed_addr #8 align 2 {
  store ptr getelementptr inbounds inrange(-16, 16) (i8, ptr @_ZTVN4llvm17ModuleSlotTrackerE, i64 16), ptr %0, align 8
  %5 = getelementptr inbounds nuw i8, ptr %0, i64 8
  store ptr null, ptr %5, align 8
  %6 = getelementptr inbounds nuw i8, ptr %0, i64 16
  store i8 0, ptr %6, align 8
  %7 = getelementptr inbounds nuw i8, ptr %0, i64 17
  store i8 0, ptr %7, align 1
  %8 = getelementptr inbounds nuw i8, ptr %0, i64 24
  store ptr %2, ptr %8, align 8
  %9 = getelementptr inbounds nuw i8, ptr %0, i64 32
  store ptr %3, ptr %9, align 8
  %10 = getelementptr inbounds nuw i8, ptr %0, i64 40
  store ptr %1, ptr %10, align 8
  %11 = getelementptr inbounds nuw i8, ptr %0, i64 48
  tail call void @llvm.memset.p0.i64(ptr noundef nonnull align 8 dereferenceable(64) %11, i8 0, i64 64, i1 false)
  ret void
}